target datalayout = "e-m:e-p270:32:32-p271:32:32-p272:64:64-i64:64-i128:128-f80:128-n8:16:32:64-S128"
target triple = "x86_64-pc-linux-gnu"

@l_System_Platform_isWindows = external global i8, align 1
@l_Lake_nameToStaticLib___closed__1 = internal global ptr null, align 8
@l_Lake_nameToStaticLib___closed__2 = internal global ptr null, align 8
@l_Lake_nameToStaticLib___closed__3 = internal global ptr null, align 8

; Function Attrs: nounwind uwtable
define ptr @l_Lake_nameToStaticLib(ptr noundef %0) #0 {
  %2 = alloca ptr, align 8
  %3 = alloca ptr, align 8
  %4 = alloca i8, align 1
  %5 = alloca ptr, align 8
  %6 = alloca ptr, align 8
  %7 = alloca ptr, align 8
  %8 = alloca ptr, align 8
  %9 = alloca i32, align 4
  %10 = alloca ptr, align 8
  %11 = alloca ptr, align 8
  %12 = alloca ptr, align 8
  %13 = alloca ptr, align 8
  store ptr %0, ptr %3, align 8, !tbaa !4
  br label %14

14:                                               ; preds = %1
  call void @llvm.lifetime.start.p0(i64 1, ptr %4) #7
  %15 = load i8, ptr @l_System_Platform_isWindows, align 1, !tbaa !8
  store i8 %15, ptr %4, align 1, !tbaa !8
  %16 = load i8, ptr %4, align 1, !tbaa !8
  %17 = zext i8 %16 to i32
  %18 = icmp eq i32 %17, 0
  br i1 %18, label %19, label %29

19:                                               ; preds = %14
  call void @llvm.lifetime.start.p0(i64 8, ptr %5) #7
  call void @llvm.lifetime.start.p0(i64 8, ptr %6) #7
  call void @llvm.lifetime.start.p0(i64 8, ptr %7) #7
  call void @llvm.lifetime.start.p0(i64 8, ptr %8) #7
  %20 = load ptr, ptr @l_Lake_nameToStaticLib___closed__1, align 8, !tbaa !4
  store ptr %20, ptr %5, align 8, !tbaa !4
  %21 = load ptr, ptr %5, align 8, !tbaa !4
  %22 = load ptr, ptr %3, align 8, !tbaa !4
  %23 = call ptr @lean_string_append(ptr noundef %21, ptr noundef %22)
  store ptr %23, ptr %6, align 8, !tbaa !4
  %24 = load ptr, ptr @l_Lake_nameToStaticLib___closed__2, align 8, !tbaa !4
  store ptr %24, ptr %7, align 8, !tbaa !4
  %25 = load ptr, ptr %6, align 8, !tbaa !4
  %26 = load ptr, ptr %7, align 8, !tbaa !4
  %27 = call ptr @lean_string_append(ptr noundef %25, ptr noundef %26)
  store ptr %27, ptr %8, align 8, !tbaa !4
  %28 = load ptr, ptr %8, align 8, !tbaa !4
  store ptr %28, ptr %2, align 8
  store i32 1, ptr %9, align 4
  call void @llvm.lifetime.end.p0(i64 8, ptr %8) #7
  call void @llvm.lifetime.end.p0(i64 8, ptr %7) #7
  call void @llvm.lifetime.end.p0(i64 8, ptr %6) #7
  call void @llvm.lifetime.end.p0(i64 8, ptr %5) #7
  br label %39

29:                                               ; preds = %14
  call void @llvm.lifetime.start.p0(i64 8, ptr %10) #7
  call void @llvm.lifetime.start.p0(i64 8, ptr %11) #7
  call void @llvm.lifetime.start.p0(i64 8, ptr %12) #7
  call void @llvm.lifetime.start.p0(i64 8, ptr %13) #7
  %30 = load ptr, ptr @l_Lake_nameToStaticLib___closed__3, align 8, !tbaa !4
  store ptr %30, ptr %10, align 8, !tbaa !4
  %31 = load ptr, ptr %10, align 8, !tbaa !4
  %32 = load ptr, ptr %3, align 8, !tbaa !4
  %33 = call ptr @lean_string_append(ptr noundef %31, ptr noundef %32)
  store ptr %33, ptr %11, align 8, !tbaa !4
  %34 = load ptr, ptr @l_Lake_nameToStaticLib___closed__2, align 8, !tbaa !4
  store ptr %34, ptr %12, align 8, !tbaa !4
  %35 = load ptr, ptr %11, align 8, !tbaa !4
  %36 = load ptr, ptr %12, align 8, !tbaa !4
  %37 = call ptr @lean_string_append(ptr noundef %35, ptr noundef %36)
  store ptr %37, ptr %13, align 8, !tbaa !4
  %38 = load ptr, ptr %13, align 8, !tbaa !4
  store ptr %38, ptr %2, align 8
  store i32 1, ptr %9, align 4
  call void @llvm.lifetime.end.p0(i64 8, ptr %13) #7
  call void @llvm.lifetime.end.p0(i64 8, ptr %12) #7
  call void @llvm.lifetime.end.p0(i64 8, ptr %11) #7
  call void @llvm.lifetime.end.p0(i64 8, ptr %10) #7
  br label %39

39:                                               ; preds = %29, %19
  call void @llvm.lifetime.end.p0(i64 1, ptr %4) #7
  %40 = load ptr, ptr %2, align 8
  ret ptr %40
}