; Function Attrs: nounwind uwtable
define ptr @l_Lake_nameToStaticLib(ptr noundef %0) local_unnamed_addr #0 {
  %2 = load i8, ptr @l_System_Platform_isWindows, align 1, !tbaa !4
  %3 = icmp eq i8 %2, 0
  %l_Lake_nameToStaticLib___closed__1.val = load ptr, ptr @l_Lake_nameToStaticLib___closed__1, align 8
  %l_Lake_nameToStaticLib___closed__3.val = load ptr, ptr @l_Lake_nameToStaticLib___closed__3, align 8
  %4 = select i1 %3, ptr %l_Lake_nameToStaticLib___closed__1.val, ptr %l_Lake_nameToStaticLib___closed__3.val
  %5 = tail call ptr @lean_string_append(ptr noundef %4, ptr noundef %0) #3
  %6 = load ptr, ptr @l_Lake_nameToStaticLib___closed__2, align 8, !tbaa !7
  %7 = tail call ptr @lean_string_append(ptr noundef %5, ptr noundef %6) #3
  ret ptr %7
}